Certificate:
    Data:
        Version: 3 (0x2)
        Serial Number: 1 (0x1)
    Signature Algorithm: sha1WithRSAEncryption
        Issuer: C=CC, ST=State, L=Location, O=Organization, CN=rsa.mitls.org/emailAddress=root@mitls.org
        Validity
            Not Before: Nov 25 10:02:49 2015 GMT
            Not After : Feb 11 10:02:49 2024 GMT
        Subject: C=CC, ST=State, O=Organization, CN=rsa.cert-01.mitls.org/emailAddress=root@mitls.org
        Subject Public Key Info:
            Public Key Algorithm: rsaEncryption
                Public-Key: (1024 bit)
                Modulus:
                    00:c0:9c:35:b9:33:81:8c:76:00:41:5f:d4:64:92:
                    bb:9b:39:2a:64:dc:f6:71:a2:57:59:4f:a7:7e:6e:
                    1f:d7:f6:e1:22:da:fc:0f:88:bf:6c:43:fb:f2:57:
                    d2:6d:c5:74:ed:f6:27:53:2f:20:f9:90:84:bd:3f:
                    ea:ad:8a:03:01:06:c4:63:aa:79:a4:3c:0d:26:3a:
                    76:52:df:06:a9:53:56:66:b1:39:91:e6:6a:ee:ba:
                    3f:7f:ed:40:e2:21:44:75:bc:ca:b9:c5:ac:3f:a4:
                    35:69:40:4f:a7:b8:c2:0e:fe:2e:8f:22:e7:d5:a4:
                    9a:64:ee:c6:da:d8:96:fd:a5
                Exponent: 65537 (0x10001)
        X509v3 extensions:
            X509v3 Key Usage: 
                Digital Signature, Non Repudiation, Key Encipherment
            X509v3 Basic Constraints: 
                CA:FALSE
            Netscape Comment: 
                OpenSSL Generated Certificate
    Signature Algorithm: sha1WithRSAEncryption
         38:71:97:fc:2f:86:fa:f8:4d:af:0f:77:02:ee:d3:d3:08:a9:
         14:8d:9d:c2:83:58:58:9c:e9:83:75:ad:4b:83:dc:c0:54:50:
         e9:2c:fc:08:54:9f:41:eb:8c:fb:66:68:35:89:30:fc:30:f8:
         9c:02:b4:c7:28:02:9c:75:3c:9a:9c:32:14:b0:ee:3a:b5:ab:
         f1:03:d1:95:77:54:44:56:bc:36:47:5a:dd:32:13:4d:1d:ec:
         38:35:e1:ec:6f:52:cb:d8:d8:ae:b2:6f:c9:8b:b9:e1:75:c1:
         34:fe:84:e8:ac:c3:0c:d0:a9:ac:44:13:b1:9e:6a:93:60:ea:
         d0:aa
-----BEGIN CERTIFICATE-----
MIICrzCCAhigAwIBAgIBATANBgkqhkiG9w0BAQUFADB+MQswCQYDVQQGEwJDQzEO
MAwGA1UECAwFU3RhdGUxETAPBgNVBAcMCExvY2F0aW9uMRUwEwYDVQQKDAxPcmdh
bml6YXRpb24xFjAUBgNVBAMMDXJzYS5taXRscy5vcmcxHTAbBgkqhkiG9w0BCQEW
DnJvb3RAbWl0bHMub3JnMB4XDTE1MTEyNTEwMDI0OVoXDTI0MDIxMTEwMDI0OVow
czELMAkGA1UEBhMCQ0MxDjAMBgNVBAgMBVN0YXRlMRUwEwYDVQQKDAxPcmdhbml6
YXRpb24xHjAcBgNVBAMMFXJzYS5jZXJ0LTAxLm1pdGxzLm9yZzEdMBsGCSqGSIb3
DQEJARYOcm9vdEBtaXRscy5vcmcwgZ8wDQYJKoZIhvcNAQEBBQADgY0AMIGJAoGB
AMCcNbkzgYx2AEFf1GSSu5s5KmTc9nGiV1lPp35uH9f24SLa/A+Iv2xD+/JX0m3F
dO32J1MvIPmQhL0/6q2KAwEGxGOqeaQ8DSY6dlLfBqlTVmaxOZHmau66P3/tQOIh
RHW8yrnFrD+kNWlAT6e4wg7+Lo8i59WkmmTuxtrYlv2lAgMBAAGjSDBGMAsGA1Ud
DwQEAwIF4DAJBgNVHRMEAjAAMCwGCWCGSAGG+EIBDQQfFh1PcGVuU1NMIEdlbmVy
YXRlZCBDZXJ0aWZpY2F0ZTANBgkqhkiG9w0BAQUFAAOBgQA4cZf8L4b6+E2vD3cC
7tPTCKkUjZ3Cg1hYnOmDda1Lg9zAVFDpLPwIVJ9B64z7Zmg1iTD8MPicArTHKAKc
dTyanDIUsO46tavxA9GVd1REVrw2R1rdMhNNHew4NeHsb1LL2Niusm/Ji7nhdcE0
/oTorMMM0KmsRBOxnmqTYOrQqg==
-----END CERTIFICATE-----
