Certificate:
    Data:
        Version: 3 (0x2)
        Serial Number: 2 (0x2)
    Signature Algorithm: dsaWithSHA1
        Issuer: C=CC, ST=State, L=Location, O=Organization, CN=dsa.mitls.org/emailAddress=root@mitls.org
        Validity
            Not Before: Nov 25 10:03:11 2015 GMT
            Not After : Feb 11 10:03:11 2024 GMT
        Subject: C=CC, ST=State, O=Organization, CN=dsa.cert-02.mitls.org/emailAddress=root@mitls.org
        Subject Public Key Info:
            Public Key Algorithm: dsaEncryption
                pub: 
                    03:4b:ca:d9:47:97:03:a3:6e:26:17:22:f1:28:aa:
                    5e:93:ec:bf:1c:1b:b4:17:af:80:a0:fa:14:20:8a:
                    c8:0b:f8:c2:a4:76:b6:53:2f:00:7c:be:bc:fd:fe:
                    02:08:2b:fa:78:04:bf:f9:96:60:13:e1:9b:59:a4:
                    85:ad:a8:24:70:ac:19:80:36:e8:9f:d4:8f:b1:43:
                    39:d4:eb:39:1a:94:c3:89:96:44:b9:1f:0f:1b:05:
                    e5:a9:21:a5:5a:1c:af:ba:b9:1c:ce:bc:6a:17:80:
                    9a:4c:8d:08:0f:62:5a:b1:f7:c2:b3:a5:58:01:90:
                    1a:f2:8d:3b:ee:f5:3d:ff
                P:   
                    00:a5:a0:8e:9e:23:35:a9:06:14:32:45:b3:f1:32:
                    7b:fe:ad:25:d1:df:ae:81:dc:2e:a4:58:ba:5a:10:
                    8d:11:ad:6e:fb:b3:44:39:0b:ae:ce:71:1b:35:22:
                    cc:4a:cd:7c:c6:9a:5a:74:8d:0e:0f:ff:11:8e:c7:
                    d7:6e:4a:5b:7f:ea:e8:6a:85:1c:aa:4e:0d:1a:71:
                    81:af:de:b3:5b:b8:d6:d2:b1:7c:b4:8c:7d:fb:15:
                    9c:83:4f:f2:b8:cd:57:ec:fc:3a:33:ee:27:33:25:
                    34:9a:2f:9e:9e:c3:be:41:e5:b5:54:b9:f0:5d:86:
                    8a:60:1c:ab:31:bd:3d:77:f1
                Q:   
                    00:96:2c:5f:63:84:74:cf:76:1c:27:ba:49:ce:e4:
                    e5:ae:d7:9e:43:87
                G:   
                    70:37:87:e7:14:d5:28:76:be:65:b0:99:27:e6:72:
                    d3:6f:51:36:4f:f9:e7:64:aa:1b:bc:a7:d3:7e:2f:
                    9c:ca:fa:1d:01:4c:04:63:9b:c5:c3:4d:f8:b9:a8:
                    90:a6:f0:d9:d5:15:b7:45:58:6e:1d:ec:3f:f7:06:
                    44:c4:5e:5f:bb:87:f7:a2:ca:71:22:e7:e1:d6:ee:
                    ba:0c:63:36:79:f2:8e:b0:a4:f3:96:45:27:1f:bb:
                    5e:df:eb:0f:e1:fb:38:ea:a5:02:02:b2:02:86:2e:
                    16:1d:6a:5a:ae:8f:36:96:0c:cc:65:b5:c5:08:3c:
                    35:55:1b:20:46:3f:e3:07
        X509v3 extensions:
            X509v3 Key Usage: 
                Digital Signature, Non Repudiation, Key Encipherment
            X509v3 Basic Constraints: 
                CA:FALSE
            Netscape Comment: 
                OpenSSL Generated Certificate
    Signature Algorithm: dsaWithSHA1
         r:   
             42:12:f2:57:50:33:c4:ed:27:5f:c0:fc:72:4a:0b:
             7e:2f:2b:b8:d8
         s:   
             00:88:47:15:13:e2:3b:54:61:ec:c2:77:83:a1:de:
             01:3d:06:0d:fc:f2
-----BEGIN CERTIFICATE-----
MIIDbTCCAyygAwIBAgIBAjAJBgcqhkjOOAQDMH4xCzAJBgNVBAYTAkNDMQ4wDAYD
VQQIDAVTdGF0ZTERMA8GA1UEBwwITG9jYXRpb24xFTATBgNVBAoMDE9yZ2FuaXph
dGlvbjEWMBQGA1UEAwwNZHNhLm1pdGxzLm9yZzEdMBsGCSqGSIb3DQEJARYOcm9v
dEBtaXRscy5vcmcwHhcNMTUxMTI1MTAwMzExWhcNMjQwMjExMTAwMzExWjBzMQsw
CQYDVQQGEwJDQzEOMAwGA1UECAwFU3RhdGUxFTATBgNVBAoMDE9yZ2FuaXphdGlv
bjEeMBwGA1UEAwwVZHNhLmNlcnQtMDIubWl0bHMub3JnMR0wGwYJKoZIhvcNAQkB
Fg5yb290QG1pdGxzLm9yZzCCAbYwggErBgcqhkjOOAQBMIIBHgKBgQCloI6eIzWp
BhQyRbPxMnv+rSXR366B3C6kWLpaEI0RrW77s0Q5C67OcRs1IsxKzXzGmlp0jQ4P
/xGOx9duSlt/6uhqhRyqTg0acYGv3rNbuNbSsXy0jH37FZyDT/K4zVfs/Doz7icz
JTSaL56ew75B5bVUufBdhopgHKsxvT138QIVAJYsX2OEdM92HCe6Sc7k5a7XnkOH
AoGAcDeH5xTVKHa+ZbCZJ+Zy029RNk/552SqG7yn034vnMr6HQFMBGObxcNN+Lmo
kKbw2dUVt0VYbh3sP/cGRMReX7uH96LKcSLn4dbuugxjNnnyjrCk85ZFJx+7Xt/r
D+H7OOqlAgKyAoYuFh1qWq6PNpYMzGW1xQg8NVUbIEY/4wcDgYQAAoGAA0vK2UeX
A6NuJhci8SiqXpPsvxwbtBevgKD6FCCKyAv4wqR2tlMvAHy+vP3+Aggr+ngEv/mW
YBPhm1mkha2oJHCsGYA26J/Uj7FDOdTrORqUw4mWRLkfDxsF5akhpVocr7q5HM68
aheAmkyNCA9iWrH3wrOlWAGQGvKNO+71Pf+jSDBGMAsGA1UdDwQEAwIF4DAJBgNV
HRMEAjAAMCwGCWCGSAGG+EIBDQQfFh1PcGVuU1NMIEdlbmVyYXRlZCBDZXJ0aWZp
Y2F0ZTAJBgcqhkjOOAQDAzAAMC0CFEIS8ldQM8TtJ1/A/HJKC34vK7jYAhUAiEcV
E+I7VGHswneDod4BPQYN/PI=
-----END CERTIFICATE-----
